target datalayout = "e-m:e-p270:32:32-p271:32:32-p272:64:64-i64:64-i128:128-f80:128-n8:16:32:64-S128"
target triple = "x86_64-pc-linux-gnu"

; Function Attrs: inlinehint mustprogress uwtable
define internal noundef double @_ZN8LightGBM6CommonL3PowIiEEdT_i(i32 noundef %0, i32 noundef %1) #12 {
  %3 = alloca double, align 8
  %4 = alloca i32, align 4
  %5 = alloca i32, align 4
  store i32 %0, ptr %4, align 4, !tbaa !141
  store i32 %1, ptr %5, align 4, !tbaa !141
  %6 = load i32, ptr %5, align 4, !tbaa !141
  %7 = icmp slt i32 %6, 0
  br i1 %7, label %8, label %14

8:                                                ; preds = %2
  %9 = load i32, ptr %4, align 4, !tbaa !141
  %10 = load i32, ptr %5, align 4, !tbaa !141
  %11 = sub nsw i32 0, %10
  %12 = call noundef double @_ZN8LightGBM6CommonL3PowIiEEdT_i(i32 noundef %9, i32 noundef %11)
  %13 = fdiv double 1.000000e+00, %12
  store double %13, ptr %3, align 8
  br label %50

14:                                               ; preds = %2
  %15 = load i32, ptr %5, align 4, !tbaa !141
  %16 = icmp eq i32 %15, 0
  br i1 %16, label %17, label %18

17:                                               ; preds = %14
  store double 1.000000e+00, ptr %3, align 8
  br label %50

18:                                               ; preds = %14
  %19 = load i32, ptr %5, align 4, !tbaa !141
  %20 = srem i32 %19, 2
  %21 = icmp eq i32 %20, 0
  br i1 %21, label %22, label %29

22:                                               ; preds = %18
  %23 = load i32, ptr %4, align 4, !tbaa !141
  %24 = load i32, ptr %4, align 4, !tbaa !141
  %25 = mul nsw i32 %23, %24
  %26 = load i32, ptr %5, align 4, !tbaa !141
  %27 = sdiv i32 %26, 2
  %28 = call noundef double @_ZN8LightGBM6CommonL3PowIiEEdT_i(i32 noundef %25, i32 noundef %27)
  store double %28, ptr %3, align 8
  br label %50

29:                                               ; preds = %18
  %30 = load i32, ptr %5, align 4, !tbaa !141
  %31 = srem i32 %30, 3
  %32 = icmp eq i32 %31, 0
  br i1 %32, label %33, label %42

33:                                               ; preds = %29
  %34 = load i32, ptr %4, align 4, !tbaa !141
  %35 = load i32, ptr %4, align 4, !tbaa !141
  %36 = mul nsw i32 %34, %35
  %37 = load i32, ptr %4, align 4, !tbaa !141
  %38 = mul nsw i32 %36, %37
  %39 = load i32, ptr %5, align 4, !tbaa !141
  %40 = sdiv i32 %39, 3
  %41 = call noundef double @_ZN8LightGBM6CommonL3PowIiEEdT_i(i32 noundef %38, i32 noundef %40)
  store double %41, ptr %3, align 8
  br label %50

42:                                               ; preds = %29
  %43 = load i32, ptr %4, align 4, !tbaa !141
  %44 = sitofp i32 %43 to double
  %45 = load i32, ptr %4, align 4, !tbaa !141
  %46 = load i32, ptr %5, align 4, !tbaa !141
  %47 = sub nsw i32 %46, 1
  %48 = call noundef double @_ZN8LightGBM6CommonL3PowIiEEdT_i(i32 noundef %45, i32 noundef %47)
  %49 = fmul double %44, %48
  store double %49, ptr %3, align 8
  br label %50

50:                                               ; preds = %42, %33, %22, %17, %8
  %51 = load double, ptr %3, align 8
  ret double %51
}